; ModuleID = 'source-C-CXX/6/1046.c'
source_filename = "source-C-CXX/6/1046.c"
target datalayout = "e-m:e-p270:32:32-p271:32:32-p272:64:64-i64:64-f80:128-n8:16:32:64-S128"
target triple = "x86_64-pc-linux-gnu"

@.str = private unnamed_addr constant [3 x i8] c"%s\00", align 1

; Function Attrs: nofree nounwind sspstrong uwtable
define dso_local i32 @main() local_unnamed_addr #0 {
  %1 = alloca [256 x i8], align 16
  %2 = alloca [256 x i8], align 16
  %3 = alloca [256 x i8], align 16
  %4 = getelementptr inbounds [256 x i8], [256 x i8]* %1, i64 0, i64 0
  call void @llvm.lifetime.start.p0i8(i64 256, i8* nonnull %4) #4
  %5 = getelementptr inbounds [256 x i8], [256 x i8]* %2, i64 0, i64 0
  call void @llvm.lifetime.start.p0i8(i64 256, i8* nonnull %5) #4
  %6 = getelementptr inbounds [256 x i8], [256 x i8]* %3, i64 0, i64 0
  call void @llvm.lifetime.start.p0i8(i64 256, i8* nonnull %6) #4
  %7 = call i32 (i8*, ...) @__isoc99_scanf(i8* getelementptr inbounds ([3 x i8], [3 x i8]* @.str, i64 0, i64 0), i8* nonnull %4)
  %8 = call i32 (i8*, ...) @__isoc99_scanf(i8* getelementptr inbounds ([3 x i8], [3 x i8]* @.str, i64 0, i64 0), i8* nonnull %5)
  %9 = call i32 (i8*, ...) @__isoc99_scanf(i8* getelementptr inbounds ([3 x i8], [3 x i8]* @.str, i64 0, i64 0), i8* nonnull %6)
  %10 = load i8, i8* %5, align 16, !tbaa !5
  %11 = icmp eq i8 %10, 0
  br i1 %11, label %12, label %16

12:                                               ; preds = %16, %0
  %13 = phi i32 [ 0, %0 ], [ %19, %16 ]
  %14 = zext i32 %13 to i64
  %15 = load i8, i8* %5, align 16
  br label %24

16:                                               ; preds = %0, %16
  %17 = phi i64 [ %20, %16 ], [ 0, %0 ]
  %18 = phi i32 [ %19, %16 ], [ 0, %0 ]
  %19 = add nuw nsw i32 %18, 1
  %20 = add nuw nsw i64 %17, 1
  %21 = getelementptr inbounds [256 x i8], [256 x i8]* %2, i64 0, i64 %20
  %22 = load i8, i8* %21, align 1, !tbaa !5
  %23 = icmp eq i8 %22, 0
  br i1 %23, label %12, label %16, !llvm.loop !8

24:                                               ; preds = %80, %12
  %25 = phi i8 [ %10, %12 ], [ %15, %80 ]
  %26 = phi i64 [ 0, %12 ], [ %78, %80 ]
  %27 = phi i64 [ %14, %12 ], [ %81, %80 ]
  %28 = getelementptr inbounds [256 x i8], [256 x i8]* %1, i64 0, i64 %26
  %29 = load i8, i8* %28, align 1, !tbaa !5
  %30 = icmp eq i8 %29, %25
  br i1 %30, label %31, label %77

31:                                               ; preds = %24
  %32 = icmp eq i8 %25, 0
  br i1 %32, label %49, label %33

33:                                               ; preds = %31, %41
  %34 = phi i64 [ %42, %41 ], [ 0, %31 ]
  %35 = phi i8 [ %45, %41 ], [ %25, %31 ]
  %36 = phi i32 [ %43, %41 ], [ 0, %31 ]
  %37 = add nuw nsw i64 %34, %26
  %38 = getelementptr inbounds [256 x i8], [256 x i8]* %1, i64 0, i64 %37
  %39 = load i8, i8* %38, align 1, !tbaa !5
  %40 = icmp eq i8 %39, %35
  br i1 %40, label %41, label %47

41:                                               ; preds = %33
  %42 = add nuw i64 %34, 1
  %43 = add nuw nsw i32 %36, 1
  %44 = getelementptr inbounds [256 x i8], [256 x i8]* %2, i64 0, i64 %42
  %45 = load i8, i8* %44, align 1, !tbaa !5
  %46 = icmp eq i8 %45, 0
  br i1 %46, label %49, label %33, !llvm.loop !10

47:                                               ; preds = %33
  %48 = trunc i64 %34 to i32
  br label %49

49:                                               ; preds = %41, %47, %31
  %50 = phi i32 [ 0, %31 ], [ %48, %47 ], [ %43, %41 ]
  %51 = icmp eq i32 %50, %13
  br i1 %51, label %52, label %77

52:                                               ; preds = %49
  %53 = icmp eq i64 %26, 0
  br i1 %53, label %54, label %60

54:                                               ; preds = %60, %52
  %55 = call i32 (i8*, ...) @printf(i8* nonnull dereferenceable(1) getelementptr inbounds ([3 x i8], [3 x i8]* @.str, i64 0, i64 0), i8* nonnull %6)
  %56 = add nuw nsw i64 %26, %14
  %57 = getelementptr inbounds [256 x i8], [256 x i8]* %1, i64 0, i64 %56
  %58 = load i8, i8* %57, align 1, !tbaa !5
  %59 = icmp eq i8 %58, 0
  br i1 %59, label %84, label %68

60:                                               ; preds = %52, %60
  %61 = phi i64 [ %66, %60 ], [ 0, %52 ]
  %62 = getelementptr inbounds [256 x i8], [256 x i8]* %1, i64 0, i64 %61
  %63 = load i8, i8* %62, align 1, !tbaa !5
  %64 = sext i8 %63 to i32
  %65 = call i32 @putchar(i32 %64)
  %66 = add nuw nsw i64 %61, 1
  %67 = icmp eq i64 %66, %26
  br i1 %67, label %54, label %60, !llvm.loop !11

68:                                               ; preds = %54, %68
  %69 = phi i64 [ %73, %68 ], [ %27, %54 ]
  %70 = phi i8 [ %75, %68 ], [ %58, %54 ]
  %71 = sext i8 %70 to i32
  %72 = call i32 @putchar(i32 %71)
  %73 = add nuw i64 %69, 1
  %74 = getelementptr inbounds [256 x i8], [256 x i8]* %1, i64 0, i64 %73
  %75 = load i8, i8* %74, align 1, !tbaa !5
  %76 = icmp eq i8 %75, 0
  br i1 %76, label %84, label %68, !llvm.loop !12

77:                                               ; preds = %49, %24
  %78 = add nuw nsw i64 %26, 1
  %79 = icmp eq i64 %78, 256
  br i1 %79, label %82, label %80, !llvm.loop !13

80:                                               ; preds = %77
  %81 = add nuw nsw i64 %27, 1
  br label %24

82:                                               ; preds = %77
  %83 = call i32 (i8*, ...) @printf(i8* nonnull dereferenceable(1) getelementptr inbounds ([3 x i8], [3 x i8]* @.str, i64 0, i64 0), i8* nonnull %4)
  br label %84

84:                                               ; preds = %68, %54, %82
  call void @llvm.lifetime.end.p0i8(i64 256, i8* nonnull %6) #4
  call void @llvm.lifetime.end.p0i8(i64 256, i8* nonnull %5) #4
  call void @llvm.lifetime.end.p0i8(i64 256, i8* nonnull %4) #4
  ret i32 0
}

; Function Attrs: argmemonly mustprogress nofree nosync nounwind willreturn
declare void @llvm.lifetime.start.p0i8(i64 immarg, i8* nocapture) #1

; Function Attrs: nofree nounwind
declare noundef i32 @__isoc99_scanf(i8* nocapture noundef readonly, ...) local_unnamed_addr #2

; Function Attrs: argmemonly mustprogress nofree nosync nounwind willreturn
declare void @llvm.lifetime.end.p0i8(i64 immarg, i8* nocapture) #1

; Function Attrs: nofree nounwind
declare noundef i32 @printf(i8* nocapture noundef readonly, ...) local_unnamed_addr #2

; Function Attrs: nofree nounwind
declare noundef i32 @putchar(i32 noundef) local_unnamed_addr #3


!llvm.module.flags = !{!0, !1, !2, !3}
!llvm.ident = !{!4}

!0 = !{i32 1, !"wchar_size", i32 4}
!1 = !{i32 7, !"PIC Level", i32 2}
!2 = !{i32 7, !"PIE Level", i32 2}
!3 = !{i32 7, !"uwtable", i32 1}
!4 = !{!"clang version 13.0.0"}
!5 = !{!6, !6, i64 0}
!6 = !{!"omnipotent char", !7, i64 0}
!7 = !{!"Simple C/C++ TBAA"}
!8 = distinct !{!8, !9}
!9 = !{!"llvm.loop.mustprogress"}
!10 = distinct !{!10, !9}
!11 = distinct !{!11, !9}
!12 = distinct !{!12, !9}
!13 = distinct !{!13, !9}
